; Function Attrs: nounwind uwtable
define internal range(i32 0, 2) i32 @test_kdf_hkdf_set_invalid_mode() #0 {
  %1 = alloca i32, align 4
  %2 = alloca [2 x %struct.ossl_param_st], align 16
  %3 = alloca %struct.ossl_param_st, align 8
  %4 = alloca %struct.ossl_param_st, align 8
  call void @llvm.lifetime.start.p0(i64 4, ptr nonnull %1) #6
  store i32 100, ptr %1, align 4, !tbaa !4
  call void @llvm.lifetime.start.p0(i64 80, ptr nonnull %2) #6
  %5 = tail call ptr @EVP_KDF_fetch(ptr noundef null, ptr noundef nonnull @.str.126, ptr noundef null) #6
  %6 = tail call ptr @EVP_KDF_CTX_new(ptr noundef %5) #6
  tail call void @EVP_KDF_free(ptr noundef %5) #6
  %7 = tail call i32 @test_ptr(ptr noundef nonnull @.str.53, i32 noundef 348, ptr noundef nonnull @.str.125, ptr noundef %6) #6
  %.not = icmp eq i32 %7, 0
  br i1 %.not, label %15, label %8

8:                                                ; preds = %0
  call void @OSSL_PARAM_construct_utf8_string(ptr dead_on_unwind nonnull writable sret(%struct.ossl_param_st) align 8 %2, ptr noundef nonnull @.str.78, ptr noundef nonnull @.str.135, i64 noundef 0) #6
  %9 = getelementptr inbounds nuw i8, ptr %2, i64 40
  call void @llvm.lifetime.start.p0(i64 40, ptr nonnull %3) #6
  call void @OSSL_PARAM_construct_end(ptr dead_on_unwind nonnull writable sret(%struct.ossl_param_st) align 8 %3) #6
  call void @llvm.memcpy.p0.p0.i64(ptr noundef nonnull align 8 dereferenceable(40) %9, ptr noundef nonnull align 8 dereferenceable(40) %3, i64 40, i1 false), !tbaa.struct !10
  call void @llvm.lifetime.end.p0(i64 40, ptr nonnull %3) #6
  %10 = call i32 @EVP_KDF_CTX_set_params(ptr noundef %6, ptr noundef nonnull %2) #6
  %11 = call i32 @test_int_eq(ptr noundef nonnull @.str.53, i32 noundef 353, ptr noundef nonnull @.str.65, ptr noundef nonnull @.str.67, i32 noundef %10, i32 noundef 0) #6
  %.not3 = icmp eq i32 %11, 0
  br i1 %.not3, label %15, label %12

12:                                               ; preds = %8
  call void @llvm.lifetime.start.p0(i64 40, ptr nonnull %4) #6
  call void @OSSL_PARAM_construct_int(ptr dead_on_unwind nonnull writable sret(%struct.ossl_param_st) align 8 %4, ptr noundef nonnull @.str.78, ptr noundef nonnull %1) #6
  call void @llvm.memcpy.p0.p0.i64(ptr noundef nonnull align 16 dereferenceable(40) %2, ptr noundef nonnull align 8 dereferenceable(40) %4, i64 40, i1 false), !tbaa.struct !10
  call void @llvm.lifetime.end.p0(i64 40, ptr nonnull %4) #6
  %13 = call i32 @EVP_KDF_CTX_set_params(ptr noundef %6, ptr noundef nonnull %2) #6
  %14 = call i32 @test_int_eq(ptr noundef nonnull @.str.53, i32 noundef 357, ptr noundef nonnull @.str.65, ptr noundef nonnull @.str.67, i32 noundef %13, i32 noundef 0) #6
  %.not4 = icmp ne i32 %14, 0
  %spec.select = zext i1 %.not4 to i32
  br label %15

15:                                               ; preds = %12, %8, %0
  %.0 = phi i32 [ 0, %8 ], [ 0, %0 ], [ %spec.select, %12 ]
  call void @EVP_KDF_CTX_free(ptr noundef %6) #6
  call void @llvm.lifetime.end.p0(i64 80, ptr nonnull %2) #6
  call void @llvm.lifetime.end.p0(i64 4, ptr nonnull %1) #6
  ret i32 %.0
}